; Function Attrs: mustprogress uwtable
define void @_ZN12colvarmodule4atomC2Ei(ptr nocapture noundef nonnull writeonly align 8 dereferenceable(120) %0, i32 noundef %1) unnamed_addr #2 align 2 {
  %3 = getelementptr inbounds i8, ptr %0, i64 24
  tail call void @llvm.memset.p0.i64(ptr noundef nonnull align 8 dereferenceable(96) %3, i8 0, i64 96, i1 false)
  %4 = tail call noundef ptr @_ZN12colvarmodule4mainEv()
  %5 = load ptr, ptr @_ZN12colvarmodule5proxyE, align 8
  %6 = getelementptr inbounds i8, ptr %5, i64 256
  %7 = load ptr, ptr %6, align 8
  %8 = getelementptr inbounds i8, ptr %7, i64 16
  %9 = load ptr, ptr %8, align 8
  %10 = tail call noundef i32 %9(ptr noundef nonnull align 8 dereferenceable(199) %6, i32 noundef %1)
  store i32 %10, ptr %0, align 8
  %11 = getelementptr inbounds i8, ptr %5, i64 264
  %12 = sext i32 %10 to i64
  %13 = load ptr, ptr %11, align 8
  %14 = getelementptr inbounds i32, ptr %13, i64 %12
  %15 = load i32, ptr %14, align 4
  %16 = getelementptr inbounds i8, ptr %0, i64 4
  store i32 %15, ptr %16, align 4
  %17 = load ptr, ptr @_ZN12colvarmodule5proxyE, align 8
  %18 = getelementptr inbounds i8, ptr %17, i64 312
  %19 = load ptr, ptr %18, align 8
  %20 = getelementptr inbounds double, ptr %19, i64 %12
  %21 = load double, ptr %20, align 8
  %22 = getelementptr inbounds i8, ptr %0, i64 8
  store double %21, ptr %22, align 8
  %23 = getelementptr inbounds i8, ptr %17, i64 336
  %24 = load ptr, ptr %23, align 8
  %25 = getelementptr inbounds double, ptr %24, i64 %12
  %26 = load double, ptr %25, align 8
  %27 = getelementptr inbounds i8, ptr %0, i64 16
  store double %26, ptr %27, align 8
  tail call void @llvm.memset.p0.i64(ptr noundef nonnull align 8 dereferenceable(96) %3, i8 0, i64 96, i1 false)
  ret void
}